target datalayout = "e-m:e-p270:32:32-p271:32:32-p272:64:64-i64:64-i128:128-f80:128-n8:16:32:64-S128"
target triple = "x86_64-pc-linux-gnu"

@hf_mpeg_descr_mosaic_mosaic_entry_point = internal global i32 0, align 4
@hf_mpeg_descr_mosaic_number_of_horizontal_elementary_cells = internal global i32 0, align 4
@hf_mpeg_descr_mosaic_reserved_future_use1 = internal global i32 0, align 4
@hf_mpeg_descr_mosaic_number_of_vertical_elementary_cells = internal global i32 0, align 4
@hf_mpeg_descr_mosaic_logical_cell_id = internal global i32 0, align 4
@hf_mpeg_descr_mosaic_reserved_future_use2 = internal global i32 0, align 4
@hf_mpeg_descr_mosaic_logical_cell_presentation_info = internal global i32 0, align 4
@hf_mpeg_descr_mosaic_elementary_cell_field_length = internal global i32 0, align 4
@hf_mpeg_descr_mosaic_reserved_future_use3 = internal global i32 0, align 4
@hf_mpeg_descr_mosaic_elementary_cell_id = internal global i32 0, align 4
@hf_mpeg_descr_mosaic_cell_linkage_info = internal global i32 0, align 4
@hf_mpeg_descr_mosaic_bouquet_id = internal global i32 0, align 4
@hf_mpeg_descr_mosaic_original_network_id = internal global i32 0, align 4
@hf_mpeg_descr_mosaic_transport_stream_id = internal global i32 0, align 4
@hf_mpeg_descr_mosaic_service_id = internal global i32 0, align 4
@hf_mpeg_descr_mosaic_event_id = internal global i32 0, align 4
@ett_mpeg_descriptor_mosaic_logical_cell = internal global i32 0, align 4
@ett_mpeg_descriptor_mosaic_elementary_cells = internal global i32 0, align 4
@.str.754 = private unnamed_addr constant [20 x i8] c"Logical Cell 0x%02x\00", align 1
@.str.755 = private unnamed_addr constant [17 x i8] c"Elementary Cells\00", align 1

; Function Attrs: null_pointer_is_valid sspstrong uwtable
define internal i32 @proto_mpeg_descriptor_dissect_mosaic_measure_l_cell_len(ptr noundef %0, i32 noundef %1) #1 {
  %3 = alloca ptr, align 8
  %4 = alloca i32, align 4
  %5 = alloca i32, align 4
  %6 = alloca i8, align 1
  %7 = alloca i8, align 1
  store ptr %0, ptr %3, align 8
  store i32 %1, ptr %4, align 4
  call void @llvm.lifetime.start.p0(i64 4, ptr %5) #4
  %8 = load i32, ptr %4, align 4
  store i32 %8, ptr %5, align 4
  %9 = load i32, ptr %5, align 4
  %10 = add i32 %9, 2
  store i32 %10, ptr %5, align 4
  call void @llvm.lifetime.start.p0(i64 1, ptr %6) #4
  %11 = load ptr, ptr %3, align 8
  %12 = load i32, ptr %5, align 4
  %13 = call zeroext i8 @tvb_get_uint8(ptr noundef %11, i32 noundef %12)
  store i8 %13, ptr %6, align 1
  %14 = load i32, ptr %5, align 4
  %15 = add i32 %14, 1
  store i32 %15, ptr %5, align 4
  %16 = load i8, ptr %6, align 1
  %17 = zext i8 %16 to i32
  %18 = load i32, ptr %5, align 4
  %19 = add i32 %18, %17
  store i32 %19, ptr %5, align 4
  call void @llvm.lifetime.start.p0(i64 1, ptr %7) #4
  %20 = load ptr, ptr %3, align 8
  %21 = load i32, ptr %5, align 4
  %22 = call zeroext i8 @tvb_get_uint8(ptr noundef %20, i32 noundef %21)
  store i8 %22, ptr %7, align 1
  %23 = load i32, ptr %5, align 4
  %24 = add i32 %23, 1
  store i32 %24, ptr %5, align 4
  %25 = load i8, ptr %7, align 1
  %26 = zext i8 %25 to i32
  switch i32 %26, label %36 [
    i32 1, label %27
    i32 2, label %30
    i32 3, label %30
    i32 4, label %33
  ]

27:                                               ; preds = %2
  %28 = load i32, ptr %5, align 4
  %29 = add i32 %28, 2
  store i32 %29, ptr %5, align 4
  br label %36

30:                                               ; preds = %2, %2
  %31 = load i32, ptr %5, align 4
  %32 = add i32 %31, 6
  store i32 %32, ptr %5, align 4
  br label %36

33:                                               ; preds = %2
  %34 = load i32, ptr %5, align 4
  %35 = add i32 %34, 8
  store i32 %35, ptr %5, align 4
  br label %36

36:                                               ; preds = %2, %33, %30, %27
  %37 = load i32, ptr %5, align 4
  %38 = load i32, ptr %4, align 4
  %39 = sub i32 %37, %38
  call void @llvm.lifetime.end.p0(i64 1, ptr %7) #4
  call void @llvm.lifetime.end.p0(i64 1, ptr %6) #4
  call void @llvm.lifetime.end.p0(i64 4, ptr %5) #4
  ret i32 %39
}

; Function Attrs: null_pointer_is_valid sspstrong uwtable
define internal void @proto_mpeg_descriptor_dissect_mosaic(ptr noundef %0, i32 noundef %1, i32 noundef %2, ptr noundef %3) #1 {
  %5 = alloca ptr, align 8
  %6 = alloca i32, align 4
  %7 = alloca i32, align 4
  %8 = alloca ptr, align 8
  %9 = alloca i32, align 4
  %10 = alloca i32, align 4
  %11 = alloca i8, align 1
  %12 = alloca ptr, align 8
  %13 = alloca i8, align 1
  %14 = alloca ptr, align 8
  %15 = alloca i8, align 1
  store ptr %0, ptr %5, align 8
  store i32 %1, ptr %6, align 4
  store i32 %2, ptr %7, align 4
  store ptr %3, ptr %8, align 8
  call void @llvm.lifetime.start.p0(i64 4, ptr %9) #4
  %16 = load i32, ptr %6, align 4
  %17 = load i32, ptr %7, align 4
  %18 = add i32 %16, %17
  store i32 %18, ptr %9, align 4
  %19 = load ptr, ptr %8, align 8
  %20 = load i32, ptr @hf_mpeg_descr_mosaic_mosaic_entry_point, align 4
  %21 = load ptr, ptr %5, align 8
  %22 = load i32, ptr %6, align 4
  %23 = call ptr @proto_tree_add_item(ptr noundef %19, i32 noundef %20, ptr noundef %21, i32 noundef %22, i32 noundef 1, i32 noundef 0)
  %24 = load ptr, ptr %8, align 8
  %25 = load i32, ptr @hf_mpeg_descr_mosaic_number_of_horizontal_elementary_cells, align 4
  %26 = load ptr, ptr %5, align 8
  %27 = load i32, ptr %6, align 4
  %28 = call ptr @proto_tree_add_item(ptr noundef %24, i32 noundef %25, ptr noundef %26, i32 noundef %27, i32 noundef 1, i32 noundef 0)
  %29 = load ptr, ptr %8, align 8
  %30 = load i32, ptr @hf_mpeg_descr_mosaic_reserved_future_use1, align 4
  %31 = load ptr, ptr %5, align 8
  %32 = load i32, ptr %6, align 4
  %33 = call ptr @proto_tree_add_item(ptr noundef %29, i32 noundef %30, ptr noundef %31, i32 noundef %32, i32 noundef 1, i32 noundef 0)
  %34 = load ptr, ptr %8, align 8
  %35 = load i32, ptr @hf_mpeg_descr_mosaic_number_of_vertical_elementary_cells, align 4
  %36 = load ptr, ptr %5, align 8
  %37 = load i32, ptr %6, align 4
  %38 = call ptr @proto_tree_add_item(ptr noundef %34, i32 noundef %35, ptr noundef %36, i32 noundef %37, i32 noundef 1, i32 noundef 0)
  %39 = load i32, ptr %6, align 4
  %40 = add i32 %39, 1
  store i32 %40, ptr %6, align 4
  br label %41

41:                                               ; preds = %177, %4
  %42 = load i32, ptr %6, align 4
  %43 = load i32, ptr %9, align 4
  %44 = icmp ult i32 %42, %43
  br i1 %44, label %45, label %178

45:                                               ; preds = %41
  call void @llvm.lifetime.start.p0(i64 4, ptr %10) #4
  %46 = load ptr, ptr %5, align 8
  %47 = load i32, ptr %6, align 4
  %48 = call i32 @proto_mpeg_descriptor_dissect_mosaic_measure_l_cell_len(ptr noundef %46, i32 noundef %47)
  store i32 %48, ptr %10, align 4
  call void @llvm.lifetime.start.p0(i64 1, ptr %11) #4
  %49 = load ptr, ptr %5, align 8
  %50 = load i32, ptr %6, align 4
  %51 = mul i32 %50, 8
  %52 = call i32 @tvb_get_bits(ptr noundef %49, i32 noundef %51, i32 noundef 6, i32 noundef 0)
  %53 = trunc i32 %52 to i8
  store i8 %53, ptr %11, align 1
  call void @llvm.lifetime.start.p0(i64 8, ptr %12) #4
  %54 = load ptr, ptr %8, align 8
  %55 = load ptr, ptr %5, align 8
  %56 = load i32, ptr %6, align 4
  %57 = load i32, ptr %10, align 4
  %58 = load i32, ptr @ett_mpeg_descriptor_mosaic_logical_cell, align 4
  %59 = load i8, ptr %11, align 1
  %60 = zext i8 %59 to i32
  %61 = call ptr (ptr, ptr, i32, i32, i32, ptr, ptr, ...) @proto_tree_add_subtree_format(ptr noundef %54, ptr noundef %55, i32 noundef %56, i32 noundef %57, i32 noundef %58, ptr noundef null, ptr noundef @.str.754, i32 noundef %60)
  store ptr %61, ptr %12, align 8
  %62 = load ptr, ptr %12, align 8
  %63 = load i32, ptr @hf_mpeg_descr_mosaic_logical_cell_id, align 4
  %64 = load ptr, ptr %5, align 8
  %65 = load i32, ptr %6, align 4
  %66 = call ptr @proto_tree_add_item(ptr noundef %62, i32 noundef %63, ptr noundef %64, i32 noundef %65, i32 noundef 2, i32 noundef 0)
  %67 = load ptr, ptr %12, align 8
  %68 = load i32, ptr @hf_mpeg_descr_mosaic_reserved_future_use2, align 4
  %69 = load ptr, ptr %5, align 8
  %70 = load i32, ptr %6, align 4
  %71 = call ptr @proto_tree_add_item(ptr noundef %67, i32 noundef %68, ptr noundef %69, i32 noundef %70, i32 noundef 2, i32 noundef 0)
  %72 = load ptr, ptr %12, align 8
  %73 = load i32, ptr @hf_mpeg_descr_mosaic_logical_cell_presentation_info, align 4
  %74 = load ptr, ptr %5, align 8
  %75 = load i32, ptr %6, align 4
  %76 = call ptr @proto_tree_add_item(ptr noundef %72, i32 noundef %73, ptr noundef %74, i32 noundef %75, i32 noundef 2, i32 noundef 0)
  %77 = load i32, ptr %6, align 4
  %78 = add i32 %77, 2
  store i32 %78, ptr %6, align 4
  call void @llvm.lifetime.start.p0(i64 1, ptr %13) #4
  %79 = load ptr, ptr %5, align 8
  %80 = load i32, ptr %6, align 4
  %81 = call zeroext i8 @tvb_get_uint8(ptr noundef %79, i32 noundef %80)
  store i8 %81, ptr %13, align 1
  %82 = load ptr, ptr %12, align 8
  %83 = load i32, ptr @hf_mpeg_descr_mosaic_elementary_cell_field_length, align 4
  %84 = load ptr, ptr %5, align 8
  %85 = load i32, ptr %6, align 4
  %86 = call ptr @proto_tree_add_item(ptr noundef %82, i32 noundef %83, ptr noundef %84, i32 noundef %85, i32 noundef 1, i32 noundef 0)
  %87 = load i32, ptr %6, align 4
  %88 = add i32 %87, 1
  store i32 %88, ptr %6, align 4
  call void @llvm.lifetime.start.p0(i64 8, ptr %14) #4
  store ptr null, ptr %14, align 8
  %89 = load i8, ptr %13, align 1
  %90 = zext i8 %89 to i32
  %91 = icmp sgt i32 %90, 0
  br i1 %91, label %92, label %100

92:                                               ; preds = %45
  %93 = load ptr, ptr %12, align 8
  %94 = load ptr, ptr %5, align 8
  %95 = load i32, ptr %6, align 4
  %96 = load i8, ptr %13, align 1
  %97 = zext i8 %96 to i32
  %98 = load i32, ptr @ett_mpeg_descriptor_mosaic_elementary_cells, align 4
  %99 = call ptr @proto_tree_add_subtree(ptr noundef %93, ptr noundef %94, i32 noundef %95, i32 noundef %97, i32 noundef %98, ptr noundef null, ptr noundef @.str.755)
  store ptr %99, ptr %14, align 8
  br label %100

100:                                              ; preds = %92, %45
  br label %101

101:                                              ; preds = %105, %100
  %102 = load i8, ptr %13, align 1
  %103 = zext i8 %102 to i32
  %104 = icmp sgt i32 %103, 0
  br i1 %104, label %105, label %122

105:                                              ; preds = %101
  %106 = load ptr, ptr %14, align 8
  %107 = load i32, ptr @hf_mpeg_descr_mosaic_reserved_future_use3, align 4
  %108 = load ptr, ptr %5, align 8
  %109 = load i32, ptr %6, align 4
  %110 = call ptr @proto_tree_add_item(ptr noundef %106, i32 noundef %107, ptr noundef %108, i32 noundef %109, i32 noundef 1, i32 noundef 0)
  %111 = load ptr, ptr %14, align 8
  %112 = load i32, ptr @hf_mpeg_descr_mosaic_elementary_cell_id, align 4
  %113 = load ptr, ptr %5, align 8
  %114 = load i32, ptr %6, align 4
  %115 = call ptr @proto_tree_add_item(ptr noundef %111, i32 noundef %112, ptr noundef %113, i32 noundef %114, i32 noundef 1, i32 noundef 0)
  %116 = load i32, ptr %6, align 4
  %117 = add i32 %116, 1
  store i32 %117, ptr %6, align 4
  %118 = load i8, ptr %13, align 1
  %119 = zext i8 %118 to i32
  %120 = sub i32 %119, 1
  %121 = trunc i32 %120 to i8
  store i8 %121, ptr %13, align 1
  br label %101, !llvm.loop !15

122:                                              ; preds = %101
  call void @llvm.lifetime.start.p0(i64 1, ptr %15) #4
  %123 = load ptr, ptr %5, align 8
  %124 = load i32, ptr %6, align 4
  %125 = call zeroext i8 @tvb_get_uint8(ptr noundef %123, i32 noundef %124)
  store i8 %125, ptr %15, align 1
  %126 = load ptr, ptr %12, align 8
  %127 = load i32, ptr @hf_mpeg_descr_mosaic_cell_linkage_info, align 4
  %128 = load ptr, ptr %5, align 8
  %129 = load i32, ptr %6, align 4
  %130 = call ptr @proto_tree_add_item(ptr noundef %126, i32 noundef %127, ptr noundef %128, i32 noundef %129, i32 noundef 1, i32 noundef 0)
  %131 = load i32, ptr %6, align 4
  %132 = add i32 %131, 1
  store i32 %132, ptr %6, align 4
  %133 = load i8, ptr %15, align 1
  %134 = zext i8 %133 to i32
  switch i32 %134, label %165 [
    i32 1, label %135
    i32 2, label %143
    i32 3, label %143
    i32 4, label %143
  ]

135:                                              ; preds = %122
  %136 = load ptr, ptr %12, align 8
  %137 = load i32, ptr @hf_mpeg_descr_mosaic_bouquet_id, align 4
  %138 = load ptr, ptr %5, align 8
  %139 = load i32, ptr %6, align 4
  %140 = call ptr @proto_tree_add_item(ptr noundef %136, i32 noundef %137, ptr noundef %138, i32 noundef %139, i32 noundef 2, i32 noundef 0)
  %141 = load i32, ptr %6, align 4
  %142 = add i32 %141, 2
  store i32 %142, ptr %6, align 4
  br label %165

143:                                              ; preds = %122, %122, %122
  %144 = load ptr, ptr %12, align 8
  %145 = load i32, ptr @hf_mpeg_descr_mosaic_original_network_id, align 4
  %146 = load ptr, ptr %5, align 8
  %147 = load i32, ptr %6, align 4
  %148 = call ptr @proto_tree_add_item(ptr noundef %144, i32 noundef %145, ptr noundef %146, i32 noundef %147, i32 noundef 2, i32 noundef 0)
  %149 = load i32, ptr %6, align 4
  %150 = add i32 %149, 2
  store i32 %150, ptr %6, align 4
  %151 = load ptr, ptr %12, align 8
  %152 = load i32, ptr @hf_mpeg_descr_mosaic_transport_stream_id, align 4
  %153 = load ptr, ptr %5, align 8
  %154 = load i32, ptr %6, align 4
  %155 = call ptr @proto_tree_add_item(ptr noundef %151, i32 noundef %152, ptr noundef %153, i32 noundef %154, i32 noundef 2, i32 noundef 0)
  %156 = load i32, ptr %6, align 4
  %157 = add i32 %156, 2
  store i32 %157, ptr %6, align 4
  %158 = load ptr, ptr %12, align 8
  %159 = load i32, ptr @hf_mpeg_descr_mosaic_service_id, align 4
  %160 = load ptr, ptr %5, align 8
  %161 = load i32, ptr %6, align 4
  %162 = call ptr @proto_tree_add_item(ptr noundef %158, i32 noundef %159, ptr noundef %160, i32 noundef %161, i32 noundef 2, i32 noundef 0)
  %163 = load i32, ptr %6, align 4
  %164 = add i32 %163, 2
  store i32 %164, ptr %6, align 4
  br label %165

165:                                              ; preds = %122, %143, %135
  %166 = load i8, ptr %15, align 1
  %167 = zext i8 %166 to i32
  %168 = icmp eq i32 %167, 4
  br i1 %168, label %169, label %177

169:                                              ; preds = %165
  %170 = load ptr, ptr %12, align 8
  %171 = load i32, ptr @hf_mpeg_descr_mosaic_event_id, align 4
  %172 = load ptr, ptr %5, align 8
  %173 = load i32, ptr %6, align 4
  %174 = call ptr @proto_tree_add_item(ptr noundef %170, i32 noundef %171, ptr noundef %172, i32 noundef %173, i32 noundef 2, i32 noundef 0)
  %175 = load i32, ptr %6, align 4
  %176 = add i32 %175, 2
  store i32 %176, ptr %6, align 4
  br label %177

177:                                              ; preds = %169, %165
  call void @llvm.lifetime.end.p0(i64 1, ptr %15) #4
  call void @llvm.lifetime.end.p0(i64 8, ptr %14) #4
  call void @llvm.lifetime.end.p0(i64 1, ptr %13) #4
  call void @llvm.lifetime.end.p0(i64 8, ptr %12) #4
  call void @llvm.lifetime.end.p0(i64 1, ptr %11) #4
  call void @llvm.lifetime.end.p0(i64 4, ptr %10) #4
  br label %41, !llvm.loop !16

178:                                              ; preds = %41
  call void @llvm.lifetime.end.p0(i64 4, ptr %9) #4
  ret void
}