; Function Attrs: null_pointer_is_valid sspstrong uwtable
define internal fastcc void @proto_mpeg_descriptor_dissect_mosaic(ptr noundef %0, i32 noundef %1, i32 noundef range(i32 1, 256) %2, ptr noundef %3) unnamed_addr #1 {
  %5 = add i32 %2, %1
  %6 = load i32, ptr @hf_mpeg_descr_mosaic_mosaic_entry_point, align 4
  %7 = tail call ptr @proto_tree_add_item(ptr noundef %3, i32 noundef %6, ptr noundef %0, i32 noundef %1, i32 noundef 1, i32 noundef 0)
  %8 = load i32, ptr @hf_mpeg_descr_mosaic_number_of_horizontal_elementary_cells, align 4
  %9 = tail call ptr @proto_tree_add_item(ptr noundef %3, i32 noundef %8, ptr noundef %0, i32 noundef %1, i32 noundef 1, i32 noundef 0)
  %10 = load i32, ptr @hf_mpeg_descr_mosaic_reserved_future_use1, align 4
  %11 = tail call ptr @proto_tree_add_item(ptr noundef %3, i32 noundef %10, ptr noundef %0, i32 noundef %1, i32 noundef 1, i32 noundef 0)
  %12 = load i32, ptr @hf_mpeg_descr_mosaic_number_of_vertical_elementary_cells, align 4
  %13 = tail call ptr @proto_tree_add_item(ptr noundef %3, i32 noundef %12, ptr noundef %0, i32 noundef %1, i32 noundef 1, i32 noundef 0)
  %14 = add i32 %1, 1
  %15 = icmp ult i32 %14, %5
  br i1 %15, label %.lr.ph94, label %._crit_edge95

.lr.ph94:                                         ; preds = %4, %.thread
  %.092 = phi i32 [ %.3, %.thread ], [ %14, %4 ]
  %16 = add i32 %.092, 2
  %17 = tail call zeroext i8 @tvb_get_uint8(ptr noundef %0, i32 noundef %16)
  %18 = add i32 %.092, 3
  %19 = zext i8 %17 to i32
  %20 = add i32 %18, %19
  %21 = tail call zeroext i8 @tvb_get_uint8(ptr noundef %0, i32 noundef %20)
  %22 = add i32 %20, 1
  switch i8 %21, label %proto_mpeg_descriptor_dissect_mosaic_measure_l_cell_len.exit [
    i8 1, label %23
    i8 2, label %25
    i8 3, label %25
    i8 4, label %27
  ]

23:                                               ; preds = %.lr.ph94
  %24 = add i32 %20, 3
  br label %proto_mpeg_descriptor_dissect_mosaic_measure_l_cell_len.exit

25:                                               ; preds = %.lr.ph94, %.lr.ph94
  %26 = add i32 %20, 7
  br label %proto_mpeg_descriptor_dissect_mosaic_measure_l_cell_len.exit

27:                                               ; preds = %.lr.ph94
  %28 = add i32 %20, 9
  br label %proto_mpeg_descriptor_dissect_mosaic_measure_l_cell_len.exit

proto_mpeg_descriptor_dissect_mosaic_measure_l_cell_len.exit: ; preds = %.lr.ph94, %23, %25, %27
  %.0.i = phi i32 [ %22, %.lr.ph94 ], [ %28, %27 ], [ %26, %25 ], [ %24, %23 ]
  %29 = sub i32 %.0.i, %.092
  %30 = shl i32 %.092, 3
  %31 = tail call i32 @tvb_get_bits(ptr noundef %0, i32 noundef %30, i32 noundef 6, i32 noundef 0)
  %32 = load i32, ptr @ett_mpeg_descriptor_mosaic_logical_cell, align 4
  %33 = and i32 %31, 255
  %34 = tail call ptr (ptr, ptr, i32, i32, i32, ptr, ptr, ...) @proto_tree_add_subtree_format(ptr noundef %3, ptr noundef %0, i32 noundef %.092, i32 noundef %29, i32 noundef %32, ptr noundef null, ptr noundef nonnull @.str.754, i32 noundef %33)
  %35 = load i32, ptr @hf_mpeg_descr_mosaic_logical_cell_id, align 4
  %36 = tail call ptr @proto_tree_add_item(ptr noundef %34, i32 noundef %35, ptr noundef %0, i32 noundef %.092, i32 noundef 2, i32 noundef 0)
  %37 = load i32, ptr @hf_mpeg_descr_mosaic_reserved_future_use2, align 4
  %38 = tail call ptr @proto_tree_add_item(ptr noundef %34, i32 noundef %37, ptr noundef %0, i32 noundef %.092, i32 noundef 2, i32 noundef 0)
  %39 = load i32, ptr @hf_mpeg_descr_mosaic_logical_cell_presentation_info, align 4
  %40 = tail call ptr @proto_tree_add_item(ptr noundef %34, i32 noundef %39, ptr noundef %0, i32 noundef %.092, i32 noundef 2, i32 noundef 0)
  %41 = tail call zeroext i8 @tvb_get_uint8(ptr noundef %0, i32 noundef %16)
  %42 = load i32, ptr @hf_mpeg_descr_mosaic_elementary_cell_field_length, align 4
  %43 = tail call ptr @proto_tree_add_item(ptr noundef %34, i32 noundef %42, ptr noundef %0, i32 noundef %16, i32 noundef 1, i32 noundef 0)
  %.not = icmp eq i8 %41, 0
  br i1 %.not, label %._crit_edge, label %.lr.ph.preheader

.lr.ph.preheader:                                 ; preds = %proto_mpeg_descriptor_dissect_mosaic_measure_l_cell_len.exit
  %44 = zext i8 %41 to i32
  %45 = load i32, ptr @ett_mpeg_descriptor_mosaic_elementary_cells, align 4
  %46 = tail call ptr @proto_tree_add_subtree(ptr noundef %34, ptr noundef %0, i32 noundef %18, i32 noundef %44, i32 noundef %45, ptr noundef null, ptr noundef nonnull @.str.755)
  br label %.lr.ph

.lr.ph:                                           ; preds = %.lr.ph.preheader, %.lr.ph
  %.191 = phi i32 [ %51, %.lr.ph ], [ %18, %.lr.ph.preheader ]
  %.08490 = phi i8 [ %52, %.lr.ph ], [ %41, %.lr.ph.preheader ]
  %47 = load i32, ptr @hf_mpeg_descr_mosaic_reserved_future_use3, align 4
  %48 = tail call ptr @proto_tree_add_item(ptr noundef %46, i32 noundef %47, ptr noundef %0, i32 noundef %.191, i32 noundef 1, i32 noundef 0)
  %49 = load i32, ptr @hf_mpeg_descr_mosaic_elementary_cell_id, align 4
  %50 = tail call ptr @proto_tree_add_item(ptr noundef %46, i32 noundef %49, ptr noundef %0, i32 noundef %.191, i32 noundef 1, i32 noundef 0)
  %51 = add i32 %.191, 1
  %52 = add i8 %.08490, -1
  %.not87 = icmp eq i8 %52, 0
  br i1 %.not87, label %._crit_edge, label %.lr.ph, !llvm.loop !15

._crit_edge:                                      ; preds = %.lr.ph, %proto_mpeg_descriptor_dissect_mosaic_measure_l_cell_len.exit
  %.1.lcssa = phi i32 [ %18, %proto_mpeg_descriptor_dissect_mosaic_measure_l_cell_len.exit ], [ %51, %.lr.ph ]
  %53 = tail call zeroext i8 @tvb_get_uint8(ptr noundef %0, i32 noundef %.1.lcssa)
  %54 = load i32, ptr @hf_mpeg_descr_mosaic_cell_linkage_info, align 4
  %55 = tail call ptr @proto_tree_add_item(ptr noundef %34, i32 noundef %54, ptr noundef %0, i32 noundef %.1.lcssa, i32 noundef 1, i32 noundef 0)
  %56 = add i32 %.1.lcssa, 1
  switch i8 %53, label %.thread [
    i8 1, label %.thread.sink.split
    i8 2, label %57
    i8 3, label %57
    i8 4, label %57
  ]

57:                                               ; preds = %._crit_edge, %._crit_edge, %._crit_edge
  %58 = load i32, ptr @hf_mpeg_descr_mosaic_original_network_id, align 4
  %59 = tail call ptr @proto_tree_add_item(ptr noundef %34, i32 noundef %58, ptr noundef %0, i32 noundef %56, i32 noundef 2, i32 noundef 0)
  %60 = add i32 %.1.lcssa, 3
  %61 = load i32, ptr @hf_mpeg_descr_mosaic_transport_stream_id, align 4
  %62 = tail call ptr @proto_tree_add_item(ptr noundef %34, i32 noundef %61, ptr noundef %0, i32 noundef %60, i32 noundef 2, i32 noundef 0)
  %63 = add i32 %.1.lcssa, 5
  %64 = load i32, ptr @hf_mpeg_descr_mosaic_service_id, align 4
  %65 = tail call ptr @proto_tree_add_item(ptr noundef %34, i32 noundef %64, ptr noundef %0, i32 noundef %63, i32 noundef 2, i32 noundef 0)
  %66 = add i32 %.1.lcssa, 7
  %67 = icmp eq i8 %53, 4
  br i1 %67, label %.thread.sink.split, label %.thread

.thread.sink.split:                               ; preds = %57, %._crit_edge
  %hf_mpeg_descr_mosaic_bouquet_id.sink = phi ptr [ @hf_mpeg_descr_mosaic_bouquet_id, %._crit_edge ], [ @hf_mpeg_descr_mosaic_event_id, %57 ]
  %.sink99 = phi i32 [ %56, %._crit_edge ], [ %66, %57 ]
  %.sink = phi i32 [ 3, %._crit_edge ], [ 9, %57 ]
  %68 = load i32, ptr %hf_mpeg_descr_mosaic_bouquet_id.sink, align 4
  %69 = tail call ptr @proto_tree_add_item(ptr noundef %34, i32 noundef %68, ptr noundef %0, i32 noundef %.sink99, i32 noundef 2, i32 noundef 0)
  %70 = add i32 %.1.lcssa, %.sink
  br label %.thread

.thread:                                          ; preds = %.thread.sink.split, %._crit_edge, %57
  %.3 = phi i32 [ %66, %57 ], [ %56, %._crit_edge ], [ %70, %.thread.sink.split ]
  %71 = icmp ult i32 %.3, %5
  br i1 %71, label %.lr.ph94, label %._crit_edge95, !llvm.loop !16

._crit_edge95:                                    ; preds = %.thread, %4
  ret void
}